target datalayout = "e-m:e-p270:32:32-p271:32:32-p272:64:64-i64:64-i128:128-f80:128-n8:16:32:64-S128"
target triple = "x86_64-unknown-linux-gnu"

%struct.configEnum = type { ptr, i32 }
%struct.typeInterface = type { ptr, ptr, ptr, ptr, ptr }
%struct.sdsConfigData = type { ptr, ptr, ptr, i32 }
%struct.enumConfigData = type { ptr, ptr, i32, ptr }
%struct.standardConfig = type { ptr, ptr, i32, %struct.typeInterface, %union.typeData, i32, ptr }
%union.typeData = type { %struct.numericConfigData }
%struct.numericConfigData = type { %union.anon, i32, i32, i64, i64, i64, ptr }
%union.anon = type { ptr }

@configs = dso_local global ptr null, align 8

; Function Attrs: nounwind uwtable
define internal ptr @lookupConfig(ptr noundef %name) #0 {
entry:
  %name.addr = alloca ptr, align 8
  %de = alloca ptr, align 8
  store ptr %name, ptr %name.addr, align 8
  %0 = load ptr, ptr @configs, align 8
  %1 = load ptr, ptr %name.addr, align 8
  %call = call ptr @dictFind(ptr noundef %0, ptr noundef %1)
  store ptr %call, ptr %de, align 8
  %2 = load ptr, ptr %de, align 8
  %tobool = icmp ne ptr %2, null
  br i1 %tobool, label %cond.true, label %cond.false

cond.true:                                        ; preds = %entry
  %3 = load ptr, ptr %de, align 8
  %call1 = call ptr @dictGetVal(ptr noundef %3)
  br label %cond.end

cond.false:                                       ; preds = %entry
  br label %cond.end

cond.end:                                         ; preds = %cond.false, %cond.true
  %cond = phi ptr [ %call1, %cond.true ], [ null, %cond.false ]
  ret ptr %cond
}

; Function Attrs: nounwind uwtable
define dso_local void @removeConfig(ptr noundef %name) #0 {
entry:
  %name.addr = alloca ptr, align 8
  %config = alloca ptr, align 8
  %enumNode = alloca ptr, align 8
  store ptr %name, ptr %name.addr, align 8
  %0 = load ptr, ptr %name.addr, align 8
  %call = call ptr @lookupConfig(ptr noundef %0)
  store ptr %call, ptr %config, align 8
  %1 = load ptr, ptr %config, align 8
  %tobool = icmp ne ptr %1, null
  br i1 %tobool, label %if.end, label %if.then

if.then:                                          ; preds = %entry
  br label %return

if.end:                                           ; preds = %entry
  %2 = load ptr, ptr %config, align 8
  %flags = getelementptr inbounds %struct.standardConfig, ptr %2, i32 0, i32 2
  %3 = load i32, ptr %flags, align 8
  %conv = zext i32 %3 to i64
  %and = and i64 %conv, 256
  %tobool1 = icmp ne i64 %and, 0
  br i1 %tobool1, label %if.then2, label %if.end24

if.then2:                                         ; preds = %if.end
  %4 = load ptr, ptr %config, align 8
  %name3 = getelementptr inbounds %struct.standardConfig, ptr %4, i32 0, i32 0
  %5 = load ptr, ptr %name3, align 8
  call void @sdsfree(ptr noundef %5)
  %6 = load ptr, ptr %config, align 8
  %type = getelementptr inbounds %struct.standardConfig, ptr %6, i32 0, i32 5
  %7 = load i32, ptr %type, align 8
  %cmp = icmp eq i32 %7, 4
  br i1 %cmp, label %if.then5, label %if.else

if.then5:                                         ; preds = %if.then2
  %8 = load ptr, ptr %config, align 8
  %data = getelementptr inbounds %struct.standardConfig, ptr %8, i32 0, i32 4
  %enum_value = getelementptr inbounds %struct.enumConfigData, ptr %data, i32 0, i32 1
  %9 = load ptr, ptr %enum_value, align 8
  store ptr %9, ptr %enumNode, align 8
  br label %while.cond

while.cond:                                       ; preds = %while.body, %if.then5
  %10 = load ptr, ptr %enumNode, align 8
  %name6 = getelementptr inbounds %struct.configEnum, ptr %10, i32 0, i32 0
  %11 = load ptr, ptr %name6, align 8
  %cmp7 = icmp ne ptr %11, null
  br i1 %cmp7, label %while.body, label %while.end

while.body:                                       ; preds = %while.cond
  %12 = load ptr, ptr %enumNode, align 8
  %name9 = getelementptr inbounds %struct.configEnum, ptr %12, i32 0, i32 0
  %13 = load ptr, ptr %name9, align 8
  call void @zfree(ptr noundef %13)
  %14 = load ptr, ptr %enumNode, align 8
  %incdec.ptr = getelementptr inbounds %struct.configEnum, ptr %14, i32 1
  store ptr %incdec.ptr, ptr %enumNode, align 8
  br label %while.cond, !llvm.loop !60

while.end:                                        ; preds = %while.cond
  %15 = load ptr, ptr %config, align 8
  %data10 = getelementptr inbounds %struct.standardConfig, ptr %15, i32 0, i32 4
  %enum_value11 = getelementptr inbounds %struct.enumConfigData, ptr %data10, i32 0, i32 1
  %16 = load ptr, ptr %enum_value11, align 8
  call void @zfree(ptr noundef %16)
  br label %if.end23

if.else:                                          ; preds = %if.then2
  %17 = load ptr, ptr %config, align 8
  %type12 = getelementptr inbounds %struct.standardConfig, ptr %17, i32 0, i32 5
  %18 = load i32, ptr %type12, align 8
  %cmp13 = icmp eq i32 %18, 3
  br i1 %cmp13, label %if.then15, label %if.end22

if.then15:                                        ; preds = %if.else
  %19 = load ptr, ptr %config, align 8
  %data16 = getelementptr inbounds %struct.standardConfig, ptr %19, i32 0, i32 4
  %default_value = getelementptr inbounds %struct.sdsConfigData, ptr %data16, i32 0, i32 1
  %20 = load ptr, ptr %default_value, align 8
  %tobool17 = icmp ne ptr %20, null
  br i1 %tobool17, label %if.then18, label %if.end21

if.then18:                                        ; preds = %if.then15
  %21 = load ptr, ptr %config, align 8
  %data19 = getelementptr inbounds %struct.standardConfig, ptr %21, i32 0, i32 4
  %default_value20 = getelementptr inbounds %struct.sdsConfigData, ptr %data19, i32 0, i32 1
  %22 = load ptr, ptr %default_value20, align 8
  call void @sdsfree(ptr noundef %22)
  br label %if.end21

if.end21:                                         ; preds = %if.then18, %if.then15
  br label %if.end22

if.end22:                                         ; preds = %if.end21, %if.else
  br label %if.end23

if.end23:                                         ; preds = %if.end22, %while.end
  br label %if.end24

if.end24:                                         ; preds = %if.end23, %if.end
  %23 = load ptr, ptr @configs, align 8
  %24 = load ptr, ptr %name.addr, align 8
  %call25 = call i32 @dictDelete(ptr noundef %23, ptr noundef %24)
  br label %return

return:                                           ; preds = %if.end24, %if.then
  ret void
}