; Function Attrs: nounwind uwtable
define dso_local void @removeConfig(ptr noundef %name) local_unnamed_addr #2 {
entry:
  %0 = load ptr, ptr @configs, align 8
  %call.i = tail call ptr @dictFind(ptr noundef %0, ptr noundef %name) #24
  %tobool.not.i = icmp eq ptr %call.i, null
  br i1 %tobool.not.i, label %return, label %lookupConfig.exit

lookupConfig.exit:                                ; preds = %entry
  %call1.i = tail call ptr @dictGetVal(ptr noundef nonnull %call.i) #24
  %tobool.not = icmp eq ptr %call1.i, null
  br i1 %tobool.not, label %return, label %if.end

if.end:                                           ; preds = %lookupConfig.exit
  %flags = getelementptr inbounds i8, ptr %call1.i, i64 16
  %1 = load i32, ptr %flags, align 8
  %2 = and i32 %1, 256
  %tobool1.not = icmp eq i32 %2, 0
  br i1 %tobool1.not, label %if.end24, label %if.then2

if.then2:                                         ; preds = %if.end
  %3 = load ptr, ptr %call1.i, align 8
  tail call void @sdsfree(ptr noundef %3) #24
  %type = getelementptr inbounds i8, ptr %call1.i, i64 112
  %4 = load i32, ptr %type, align 8
  switch i32 %4, label %if.end24 [
    i32 4, label %if.then5
    i32 3, label %if.then15
  ]

if.then5:                                         ; preds = %if.then2
  %enum_value = getelementptr inbounds i8, ptr %call1.i, i64 72
  %5 = load ptr, ptr %enum_value, align 8
  %6 = load ptr, ptr %5, align 8
  %cmp7.not16 = icmp eq ptr %6, null
  br i1 %cmp7.not16, label %while.end, label %while.body

while.body:                                       ; preds = %if.then5, %while.body
  %7 = phi ptr [ %8, %while.body ], [ %6, %if.then5 ]
  %enumNode.017 = phi ptr [ %incdec.ptr, %while.body ], [ %5, %if.then5 ]
  tail call void @zfree(ptr noundef nonnull %7) #24
  %incdec.ptr = getelementptr inbounds i8, ptr %enumNode.017, i64 16
  %8 = load ptr, ptr %incdec.ptr, align 8
  %cmp7.not = icmp eq ptr %8, null
  br i1 %cmp7.not, label %while.end.loopexit, label %while.body, !llvm.loop !61

while.end.loopexit:                               ; preds = %while.body
  %.pre = load ptr, ptr %enum_value, align 8
  br label %while.end

while.end:                                        ; preds = %while.end.loopexit, %if.then5
  %9 = phi ptr [ %.pre, %while.end.loopexit ], [ %5, %if.then5 ]
  tail call void @zfree(ptr noundef %9) #24
  br label %if.end24

if.then15:                                        ; preds = %if.then2
  %default_value = getelementptr inbounds i8, ptr %call1.i, i64 72
  %10 = load ptr, ptr %default_value, align 8
  %tobool17.not = icmp eq ptr %10, null
  br i1 %tobool17.not, label %if.end24, label %if.then18

if.then18:                                        ; preds = %if.then15
  tail call void @sdsfree(ptr noundef nonnull %10) #24
  br label %if.end24

if.end24:                                         ; preds = %if.then2, %while.end, %if.then15, %if.then18, %if.end
  %11 = load ptr, ptr @configs, align 8
  %call25 = tail call i32 @dictDelete(ptr noundef %11, ptr noundef %name) #24
  br label %return

return:                                           ; preds = %entry, %lookupConfig.exit, %if.end24
  ret void
}